target datalayout = "e-m:e-p270:32:32-p271:32:32-p272:64:64-i64:64-i128:128-f80:128-n8:16:32:64-S128"
target triple = "x86_64-pc-linux-gnu"

%struct.__va_list_tag = type { i32, i32, ptr, ptr }
%struct.mbedtls_ssl_context = type { ptr, i32, i32, i32, i32, i32, ptr, ptr, ptr, ptr, ptr, ptr, ptr, ptr, ptr, ptr, ptr, ptr, ptr, ptr, ptr, ptr, ptr, ptr, ptr, ptr, ptr, ptr, ptr, ptr, ptr, ptr, ptr, i32, i64, i64, i16, i64, i64, i64, i64, i32, i32, i8, i8, i32, i8, ptr, ptr, ptr, ptr, ptr, ptr, ptr, i32, i64, i64, [8 x i8], i16, ptr, ptr, ptr, i64, i32, i64, [12 x i8], [12 x i8], [32 x i8], i8, i8, ptr, ptr, %union.mbedtls_ssl_user_data_t }
%union.mbedtls_ssl_user_data_t = type { i64 }
%struct.mbedtls_ssl_config = type { i32, i32, i8, i8, i8, i8, i8, i8, i8, i8, i8, i8, i16, i8, i8, i8, ptr, i32, ptr, ptr, ptr, ptr, ptr, ptr, ptr, ptr, ptr, ptr, ptr, ptr, ptr, ptr, ptr, ptr, ptr, ptr, ptr, i64, ptr, ptr, ptr, ptr, ptr, ptr, ptr, ptr, %struct.mbedtls_mpi, %struct.mbedtls_mpi, ptr, i64, ptr, i64, ptr, i32, i32, i32, i32, [8 x i8], i32, i32, %union.mbedtls_ssl_user_data_t, ptr, ptr }
%struct.mbedtls_mpi = type { ptr, i16, i16 }

@debug_threshold = internal global i32 0, align 4

; Function Attrs: inlinehint nounwind uwtable
define internal void @debug_send_line(ptr noundef %0, i32 noundef %1, ptr noundef %2, i32 noundef %3, ptr noundef %4) #4 {
  %6 = alloca ptr, align 8
  %7 = alloca i32, align 4
  %8 = alloca ptr, align 8
  %9 = alloca i32, align 4
  %10 = alloca ptr, align 8
  store ptr %0, ptr %6, align 8, !tbaa !7
  store i32 %1, ptr %7, align 4, !tbaa !3
  store ptr %2, ptr %8, align 8, !tbaa !10
  store i32 %3, ptr %9, align 4, !tbaa !3
  store ptr %4, ptr %10, align 8, !tbaa !10
  %11 = load ptr, ptr %6, align 8, !tbaa !7
  %12 = getelementptr inbounds nuw %struct.mbedtls_ssl_context, ptr %11, i32 0, i32 0
  %13 = load ptr, ptr %12, align 8, !tbaa !12
  %14 = getelementptr inbounds nuw %struct.mbedtls_ssl_config, ptr %13, i32 0, i32 18
  %15 = load ptr, ptr %14, align 8, !tbaa !20
  %16 = load ptr, ptr %6, align 8, !tbaa !7
  %17 = getelementptr inbounds nuw %struct.mbedtls_ssl_context, ptr %16, i32 0, i32 0
  %18 = load ptr, ptr %17, align 8, !tbaa !12
  %19 = getelementptr inbounds nuw %struct.mbedtls_ssl_config, ptr %18, i32 0, i32 19
  %20 = load ptr, ptr %19, align 8, !tbaa !33
  %21 = load i32, ptr %7, align 4, !tbaa !3
  %22 = load ptr, ptr %8, align 8, !tbaa !10
  %23 = load i32, ptr %9, align 4, !tbaa !3
  %24 = load ptr, ptr %10, align 8, !tbaa !10
  call void %15(ptr noundef %20, i32 noundef %21, ptr noundef %22, i32 noundef %23, ptr noundef %24)
  ret void
}

; Function Attrs: nounwind uwtable
define hidden void @mbedtls_debug_print_msg(ptr noundef %0, i32 noundef %1, ptr noundef %2, i32 noundef %3, ptr noundef %4, ...) #0 {
  %6 = alloca ptr, align 8
  %7 = alloca i32, align 4
  %8 = alloca ptr, align 8
  %9 = alloca i32, align 4
  %10 = alloca ptr, align 8
  %11 = alloca [1 x %struct.__va_list_tag], align 16
  %12 = alloca [512 x i8], align 16
  %13 = alloca i32, align 4
  %14 = alloca i32, align 4
  store ptr %0, ptr %6, align 8, !tbaa !7
  store i32 %1, ptr %7, align 4, !tbaa !3
  store ptr %2, ptr %8, align 8, !tbaa !10
  store i32 %3, ptr %9, align 4, !tbaa !3
  store ptr %4, ptr %10, align 8, !tbaa !10
  call void @llvm.lifetime.start.p0(i64 24, ptr %11) #8
  call void @llvm.lifetime.start.p0(i64 512, ptr %12) #8
  call void @llvm.lifetime.start.p0(i64 4, ptr %13) #8
  store i32 -110, ptr %13, align 4, !tbaa !3
  %15 = load ptr, ptr %6, align 8, !tbaa !7
  %16 = icmp eq ptr null, %15
  br i1 %16, label %33, label %17

17:                                               ; preds = %5
  %18 = load ptr, ptr %6, align 8, !tbaa !7
  %19 = getelementptr inbounds nuw %struct.mbedtls_ssl_context, ptr %18, i32 0, i32 0
  %20 = load ptr, ptr %19, align 8, !tbaa !12
  %21 = icmp eq ptr null, %20
  br i1 %21, label %33, label %22

22:                                               ; preds = %17
  %23 = load ptr, ptr %6, align 8, !tbaa !7
  %24 = getelementptr inbounds nuw %struct.mbedtls_ssl_context, ptr %23, i32 0, i32 0
  %25 = load ptr, ptr %24, align 8, !tbaa !12
  %26 = getelementptr inbounds nuw %struct.mbedtls_ssl_config, ptr %25, i32 0, i32 18
  %27 = load ptr, ptr %26, align 8, !tbaa !20
  %28 = icmp eq ptr null, %27
  br i1 %28, label %33, label %29

29:                                               ; preds = %22
  %30 = load i32, ptr %7, align 4, !tbaa !3
  %31 = load i32, ptr @debug_threshold, align 4, !tbaa !3
  %32 = icmp sgt i32 %30, %31
  br i1 %32, label %33, label %34

33:                                               ; preds = %29, %22, %17, %5
  store i32 1, ptr %14, align 4
  br label %62

34:                                               ; preds = %29
  %35 = getelementptr inbounds [1 x %struct.__va_list_tag], ptr %11, i64 0, i64 0
  call void @llvm.va_start.p0(ptr %35)
  %36 = getelementptr inbounds [512 x i8], ptr %12, i64 0, i64 0
  %37 = load ptr, ptr %10, align 8, !tbaa !10
  %38 = getelementptr inbounds [1 x %struct.__va_list_tag], ptr %11, i64 0, i64 0
  %39 = call i32 @vsnprintf(ptr noundef %36, i64 noundef 512, ptr noundef %37, ptr noundef %38) #8
  store i32 %39, ptr %13, align 4, !tbaa !3
  %40 = getelementptr inbounds [1 x %struct.__va_list_tag], ptr %11, i64 0, i64 0
  call void @llvm.va_end.p0(ptr %40)
  %41 = load i32, ptr %13, align 4, !tbaa !3
  %42 = icmp slt i32 %41, 0
  br i1 %42, label %43, label %44

43:                                               ; preds = %34
  store i32 0, ptr %13, align 4, !tbaa !3
  br label %49

44:                                               ; preds = %34
  %45 = load i32, ptr %13, align 4, !tbaa !3
  %46 = icmp sge i32 %45, 511
  br i1 %46, label %47, label %48

47:                                               ; preds = %44
  store i32 510, ptr %13, align 4, !tbaa !3
  br label %48

48:                                               ; preds = %47, %44
  br label %49

49:                                               ; preds = %48, %43
  %50 = load i32, ptr %13, align 4, !tbaa !3
  %51 = sext i32 %50 to i64
  %52 = getelementptr inbounds [512 x i8], ptr %12, i64 0, i64 %51
  store i8 10, ptr %52, align 1, !tbaa !32
  %53 = load i32, ptr %13, align 4, !tbaa !3
  %54 = add nsw i32 %53, 1
  %55 = sext i32 %54 to i64
  %56 = getelementptr inbounds [512 x i8], ptr %12, i64 0, i64 %55
  store i8 0, ptr %56, align 1, !tbaa !32
  %57 = load ptr, ptr %6, align 8, !tbaa !7
  %58 = load i32, ptr %7, align 4, !tbaa !3
  %59 = load ptr, ptr %8, align 8, !tbaa !10
  %60 = load i32, ptr %9, align 4, !tbaa !3
  %61 = getelementptr inbounds [512 x i8], ptr %12, i64 0, i64 0
  call void @debug_send_line(ptr noundef %57, i32 noundef %58, ptr noundef %59, i32 noundef %60, ptr noundef %61)
  store i32 0, ptr %14, align 4
  br label %62

62:                                               ; preds = %49, %33
  call void @llvm.lifetime.end.p0(i64 4, ptr %13) #8
  call void @llvm.lifetime.end.p0(i64 512, ptr %12) #8
  call void @llvm.lifetime.end.p0(i64 24, ptr %11) #8
  %63 = load i32, ptr %14, align 4
  switch i32 %63, label %65 [
    i32 0, label %64
    i32 1, label %64
  ]

64:                                               ; preds = %62, %62
  ret void

65:                                               ; preds = %62
  unreachable
}